	.text
	.file	"hello_world.cpp"
	.section	.text.startup,"ax",@progbits
	.p2align	4, 0x90         # -- Begin function __cxx_global_var_init
	.type	__cxx_global_var_init,@function
__cxx_global_var_init:                  # @__cxx_global_var_init
	.cfi_startproc
# %bb.0:
	pushq	%rbp
	.cfi_def_cfa_offset 16
	.cfi_offset %rbp, -16
	movq	%rsp, %rbp
	.cfi_def_cfa_register %rbp
	subq	$16, %rsp
	movabsq	$_ZStL8__ioinit, %rdi
	callq	_ZNSt8ios_base4InitC1Ev
	movabsq	$_ZNSt8ios_base4InitD1Ev, %rdi
	movabsq	$_ZStL8__ioinit, %rsi
	movabsq	$__dso_handle, %rdx
	callq	__cxa_atexit
	movl	%eax, -4(%rbp)          # 4-byte Spill
	addq	$16, %rsp
	popq	%rbp
	retq
.Lfunc_end0:
	.size	__cxx_global_var_init, .Lfunc_end0-__cxx_global_var_init
	.cfi_endproc
                                        # -- End function
	.text
	.globl	main                    # -- Begin function main
	.p2align	4, 0x90
	.type	main,@function
main:                                   # @main
	.cfi_startproc
# %bb.0:
	pushq	%rbp
	.cfi_def_cfa_offset 16
	.cfi_offset %rbp, -16
	movq	%rsp, %rbp
	.cfi_def_cfa_register %rbp
	subq	$16, %rsp
	movabsq	$_ZSt4cout, %rdi
	movabsq	$.L.str, %rsi
	callq	_ZStlsISt11char_traitsIcEERSt13basic_ostreamIcT_ES5_PKc
	xorl	%ecx, %ecx
	movq	%rax, -8(%rbp)          # 8-byte Spill
	movl	%ecx, %eax
	addq	$16, %rsp
	popq	%rbp
	retq
.Lfunc_end1:
	.size	main, .Lfunc_end1-main
	.cfi_endproc
                                        # -- End function
	.section	.text.startup,"ax",@progbits
	.p2align	4, 0x90         # -- Begin function _GLOBAL__sub_I_hello_world.cpp
	.type	_GLOBAL__sub_I_hello_world.cpp,@function
_GLOBAL__sub_I_hello_world.cpp:         # @_GLOBAL__sub_I_hello_world.cpp
	.cfi_startproc
# %bb.0:
	pushq	%rbp
	.cfi_def_cfa_offset 16
	.cfi_offset %rbp, -16
	movq	%rsp, %rbp
	.cfi_def_cfa_register %rbp
	callq	__cxx_global_var_init
	popq	%rbp
	retq
.Lfunc_end2:
	.size	_GLOBAL__sub_I_hello_world.cpp, .Lfunc_end2-_GLOBAL__sub_I_hello_world.cpp
	.cfi_endproc
                                        # -- End function
	.type	_ZStL8__ioinit,@object  # @_ZStL8__ioinit
	.local	_ZStL8__ioinit
	.comm	_ZStL8__ioinit,1,1
	.hidden	__dso_handle
	.type	.L.str,@object          # @.str
	.section	.rodata.str1.1,"aMS",@progbits,1
.L.str:
	.asciz	"Hello, world!\n"
	.size	.L.str, 15

	.section	.init_array,"aw",@init_array
	.p2align	3
	.quad	_GLOBAL__sub_I_hello_world.cpp

	.ident	"clang version 6.0.1 (tags/RELEASE_601/final)"
	.section	".note.GNU-stack","",@progbits
